target datalayout = "e-m:e-p270:32:32-p271:32:32-p272:64:64-i64:64-i128:128-f80:128-n8:16:32:64-S128"
target triple = "x86_64-pc-linux-gnu"

%struct.list_head = type { ptr, ptr }
%struct.strbuf = type { i64, i64, ptr }
%struct.trace_key = type { ptr, i32, i8 }
%struct.chdir_notify_entry = type { ptr, ptr, ptr, %struct.list_head }

@chdir_notify_entries = internal global %struct.list_head { ptr @chdir_notify_entries, ptr @chdir_notify_entries }, align 8
@__const.chdir_notify.old_cwd = private unnamed_addr constant %struct.strbuf { i64 0, i64 0, ptr @strbuf_slopbuf }, align 8
@trace_setup_key = external global %struct.trace_key, align 8
@.str = private unnamed_addr constant [15 x i8] c"chdir-notify.c\00", align 1
@.str.1 = private unnamed_addr constant [31 x i8] c"setup: chdir from '%s' to '%s'\00", align 1

; Function Attrs: inlinehint nounwind uwtable
define internal i32 @trace_pass_fl(ptr noundef %0) #3 {
  %2 = alloca ptr, align 8
  store ptr %0, ptr %2, align 8, !tbaa !30
  %3 = load ptr, ptr %2, align 8, !tbaa !30
  %4 = getelementptr inbounds nuw %struct.trace_key, ptr %3, i32 0, i32 1
  %5 = load i32, ptr %4, align 8, !tbaa !32
  %6 = icmp ne i32 %5, 0
  br i1 %6, label %15, label %7

7:                                                ; preds = %1
  %8 = load ptr, ptr %2, align 8, !tbaa !30
  %9 = getelementptr inbounds nuw %struct.trace_key, ptr %8, i32 0, i32 2
  %10 = load i8, ptr %9, align 4
  %11 = and i8 %10, 1
  %12 = zext i8 %11 to i32
  %13 = icmp ne i32 %12, 0
  %14 = xor i1 %13, true
  br label %15

15:                                               ; preds = %7, %1
  %16 = phi i1 [ true, %1 ], [ %14, %7 ]
  %17 = zext i1 %16 to i32
  ret i32 %17
}

; Function Attrs: nounwind uwtable
define dso_local i32 @chdir_notify(ptr noundef %0) #0 {
  %2 = alloca i32, align 4
  %3 = alloca ptr, align 8
  %4 = alloca %struct.strbuf, align 8
  %5 = alloca ptr, align 8
  %6 = alloca i32, align 4
  %7 = alloca i32, align 4
  %8 = alloca ptr, align 8
  store ptr %0, ptr %3, align 8, !tbaa !4
  call void @llvm.lifetime.start.p0(i64 24, ptr %4) #7
  call void @llvm.memcpy.p0.p0.i64(ptr align 8 %4, ptr align 8 @__const.chdir_notify.old_cwd, i64 24, i1 false)
  call void @llvm.lifetime.start.p0(i64 8, ptr %5) #7
  %9 = call i32 @strbuf_getcwd(ptr noundef %4)
  %10 = icmp slt i32 %9, 0
  br i1 %10, label %11, label %12

11:                                               ; preds = %1
  store i32 -1, ptr %2, align 4
  store i32 1, ptr %6, align 4
  br label %56

12:                                               ; preds = %1
  %13 = load ptr, ptr %3, align 8, !tbaa !4
  %14 = call i32 @chdir(ptr noundef %13) #7
  %15 = icmp slt i32 %14, 0
  br i1 %15, label %16, label %21

16:                                               ; preds = %12
  call void @llvm.lifetime.start.p0(i64 4, ptr %7) #7
  %17 = call ptr @__errno_location() #8
  %18 = load i32, ptr %17, align 4, !tbaa !23
  store i32 %18, ptr %7, align 4, !tbaa !23
  call void @strbuf_release(ptr noundef %4)
  %19 = load i32, ptr %7, align 4, !tbaa !23
  %20 = call ptr @__errno_location() #8
  store i32 %19, ptr %20, align 4, !tbaa !23
  store i32 -1, ptr %2, align 4
  store i32 1, ptr %6, align 4
  call void @llvm.lifetime.end.p0(i64 4, ptr %7) #7
  br label %56

21:                                               ; preds = %12
  br label %22

22:                                               ; preds = %21
  %23 = call i32 @trace_pass_fl(ptr noundef @trace_setup_key)
  %24 = icmp ne i32 %23, 0
  br i1 %24, label %25, label %29

25:                                               ; preds = %22
  %26 = getelementptr inbounds nuw %struct.strbuf, ptr %4, i32 0, i32 2
  %27 = load ptr, ptr %26, align 8, !tbaa !25
  %28 = load ptr, ptr %3, align 8, !tbaa !4
  call void (ptr, i32, ptr, ptr, ...) @trace_printf_key_fl(ptr noundef @.str, i32 noundef 70, ptr noundef @trace_setup_key, ptr noundef @.str.1, ptr noundef %27, ptr noundef %28)
  br label %29

29:                                               ; preds = %25, %22
  br label %30

30:                                               ; preds = %29
  br label %31

31:                                               ; preds = %30
  %32 = load ptr, ptr @chdir_notify_entries, align 8, !tbaa !20
  store ptr %32, ptr %5, align 8, !tbaa !18
  br label %33

33:                                               ; preds = %51, %31
  %34 = load ptr, ptr %5, align 8, !tbaa !18
  %35 = icmp ne ptr %34, @chdir_notify_entries
  br i1 %35, label %36, label %55

36:                                               ; preds = %33
  call void @llvm.lifetime.start.p0(i64 8, ptr %8) #7
  %37 = load ptr, ptr %5, align 8, !tbaa !18
  %38 = getelementptr inbounds i8, ptr %37, i64 -24
  store ptr %38, ptr %8, align 8, !tbaa !10
  %39 = load ptr, ptr %8, align 8, !tbaa !10
  %40 = getelementptr inbounds nuw %struct.chdir_notify_entry, ptr %39, i32 0, i32 1
  %41 = load ptr, ptr %40, align 8, !tbaa !16
  %42 = load ptr, ptr %8, align 8, !tbaa !10
  %43 = getelementptr inbounds nuw %struct.chdir_notify_entry, ptr %42, i32 0, i32 0
  %44 = load ptr, ptr %43, align 8, !tbaa !12
  %45 = getelementptr inbounds nuw %struct.strbuf, ptr %4, i32 0, i32 2
  %46 = load ptr, ptr %45, align 8, !tbaa !25
  %47 = load ptr, ptr %3, align 8, !tbaa !4
  %48 = load ptr, ptr %8, align 8, !tbaa !10
  %49 = getelementptr inbounds nuw %struct.chdir_notify_entry, ptr %48, i32 0, i32 2
  %50 = load ptr, ptr %49, align 8, !tbaa !17
  call void %41(ptr noundef %44, ptr noundef %46, ptr noundef %47, ptr noundef %50)
  call void @llvm.lifetime.end.p0(i64 8, ptr %8) #7
  br label %51

51:                                               ; preds = %36
  %52 = load ptr, ptr %5, align 8, !tbaa !18
  %53 = getelementptr inbounds nuw %struct.list_head, ptr %52, i32 0, i32 0
  %54 = load ptr, ptr %53, align 8, !tbaa !20
  store ptr %54, ptr %5, align 8, !tbaa !18
  br label %33, !llvm.loop !28

55:                                               ; preds = %33
  call void @strbuf_release(ptr noundef %4)
  store i32 0, ptr %2, align 4
  store i32 1, ptr %6, align 4
  br label %56

56:                                               ; preds = %55, %16, %11
  call void @llvm.lifetime.end.p0(i64 8, ptr %5) #7
  call void @llvm.lifetime.end.p0(i64 24, ptr %4) #7
  %57 = load i32, ptr %2, align 4
  ret i32 %57
}