; Function Attrs: nounwind uwtable
define dso_local range(i32 -1, 1) i32 @chdir_notify(ptr noundef %0) local_unnamed_addr #0 {
  %2 = alloca %struct.strbuf, align 8
  call void @llvm.lifetime.start.p0(i64 24, ptr nonnull %2) #7
  call void @llvm.memcpy.p0.p0.i64(ptr noundef nonnull align 8 dereferenceable(24) %2, ptr noundef nonnull align 8 dereferenceable(24) @__const.chdir_notify.old_cwd, i64 24, i1 false)
  %3 = call i32 @strbuf_getcwd(ptr noundef nonnull %2) #7
  %4 = icmp slt i32 %3, 0
  br i1 %4, label %28, label %5

5:                                                ; preds = %1
  %6 = call i32 @chdir(ptr noundef %0) #7
  %7 = icmp slt i32 %6, 0
  br i1 %7, label %8, label %11

8:                                                ; preds = %5
  %9 = tail call ptr @__errno_location() #8
  %10 = load i32, ptr %9, align 4, !tbaa !21
  call void @strbuf_release(ptr noundef nonnull %2) #7
  store i32 %10, ptr %9, align 4, !tbaa !21
  br label %28

11:                                               ; preds = %5
  %12 = load i32, ptr getelementptr inbounds nuw (i8, ptr @trace_setup_key, i64 8), align 8, !tbaa !18
  %.not.i = icmp eq i32 %12, 0
  %13 = load i8, ptr getelementptr inbounds nuw (i8, ptr @trace_setup_key, i64 12), align 4
  %14 = and i8 %13, 1
  %.not12 = icmp ne i8 %14, 0
  %.not = select i1 %.not.i, i1 %.not12, i1 false
  br i1 %.not, label %18, label %15

15:                                               ; preds = %11
  %16 = getelementptr inbounds nuw i8, ptr %2, i64 16
  %17 = load ptr, ptr %16, align 8, !tbaa !22
  call void (ptr, i32, ptr, ptr, ...) @trace_printf_key_fl(ptr noundef nonnull @.str, i32 noundef 70, ptr noundef nonnull @trace_setup_key, ptr noundef nonnull @.str.1, ptr noundef %17, ptr noundef %0) #7
  br label %18

18:                                               ; preds = %15, %11
  %.01013 = load ptr, ptr @chdir_notify_entries, align 8, !tbaa !15
  %.not1114 = icmp eq ptr %.01013, @chdir_notify_entries
  br i1 %.not1114, label %._crit_edge, label %.lr.ph

.lr.ph:                                           ; preds = %18
  %19 = getelementptr inbounds nuw i8, ptr %2, i64 16
  br label %20

20:                                               ; preds = %.lr.ph, %20
  %.01015 = phi ptr [ %.01013, %.lr.ph ], [ %.010, %20 ]
  %21 = getelementptr inbounds i8, ptr %.01015, i64 -24
  %22 = getelementptr inbounds i8, ptr %.01015, i64 -16
  %23 = load ptr, ptr %22, align 8, !tbaa !12
  %24 = load ptr, ptr %21, align 8, !tbaa !4
  %25 = load ptr, ptr %19, align 8, !tbaa !22
  %26 = getelementptr inbounds i8, ptr %.01015, i64 -8
  %27 = load ptr, ptr %26, align 8, !tbaa !13
  call void %23(ptr noundef %24, ptr noundef %25, ptr noundef %0, ptr noundef %27) #7
  %.010 = load ptr, ptr %.01015, align 8, !tbaa !15
  %.not11 = icmp eq ptr %.010, @chdir_notify_entries
  br i1 %.not11, label %._crit_edge, label %20, !llvm.loop !25

._crit_edge:                                      ; preds = %20, %18
  call void @strbuf_release(ptr noundef nonnull %2) #7
  br label %28

28:                                               ; preds = %1, %._crit_edge, %8
  %.0 = phi i32 [ -1, %8 ], [ 0, %._crit_edge ], [ -1, %1 ]
  call void @llvm.lifetime.end.p0(i64 24, ptr nonnull %2) #7
  ret i32 %.0
}